; Function Attrs: nounwind uwtable
define internal noundef i32 @NULLClose(ptr noundef %0) #0 {
  %2 = load ptr, ptr %0, align 8
  %3 = getelementptr inbounds i8, ptr %0, i64 8
  %4 = load ptr, ptr %3, align 8
  tail call void @_cmsFree(ptr noundef %4, ptr noundef %2) #19
  %5 = load ptr, ptr %3, align 8
  tail call void @_cmsFree(ptr noundef %5, ptr noundef nonnull %0) #19
  ret i32 1
}